; Function Attrs: mustprogress uwtable
define hidden void @_ZN2bv8ackerman6add_ccEii(ptr nocapture noundef nonnull readonly align 8 dereferenceable(72) %this, i32 noundef %v1, i32 noundef %v2) local_unnamed_addr #3 align 2 {
entry:
  %0 = load ptr, ptr %this, align 8
  %m_var2enode.i = getelementptr inbounds i8, ptr %0, i64 88
  %1 = load ptr, ptr %m_var2enode.i, align 8
  %cmp.i.i = icmp eq ptr %1, null
  br i1 %cmp.i.i, label %return, label %_ZNK3euf13th_euf_solver12get_num_varsEv.exit

_ZNK3euf13th_euf_solver12get_num_varsEv.exit:     ; preds = %entry
  %arrayidx.i.i = getelementptr inbounds i8, ptr %1, i64 -4
  %2 = load i32, ptr %arrayidx.i.i, align 4
  %cmp.not = icmp ugt i32 %2, %v2
  br i1 %cmp.not, label %if.end, label %return

if.end:                                           ; preds = %_ZNK3euf13th_euf_solver12get_num_varsEv.exit
  %idxprom.i.i = zext i32 %v1 to i64
  %arrayidx.i.i8 = getelementptr inbounds ptr, ptr %1, i64 %idxprom.i.i
  %3 = load ptr, ptr %arrayidx.i.i8, align 8
  %tobool.not = icmp eq ptr %3, null
  br i1 %tobool.not, label %return, label %lor.lhs.false

lor.lhs.false:                                    ; preds = %if.end
  %idxprom.i.i10 = zext i32 %v2 to i64
  %arrayidx.i.i11 = getelementptr inbounds ptr, ptr %1, i64 %idxprom.i.i10
  %4 = load ptr, ptr %arrayidx.i.i11, align 8
  %tobool6.not = icmp eq ptr %4, null
  br i1 %tobool6.not, label %return, label %if.end8

if.end8:                                          ; preds = %lor.lhs.false
  %5 = load ptr, ptr %3, align 8
  %call11 = tail call noundef ptr @_ZNK4expr8get_sortEv(ptr noundef nonnull align 4 dereferenceable(16) %5)
  %6 = load ptr, ptr %this, align 8
  %m_var2enode.i.i12 = getelementptr inbounds i8, ptr %6, i64 88
  %7 = load ptr, ptr %m_var2enode.i.i12, align 8
  %arrayidx.i.i.i14 = getelementptr inbounds ptr, ptr %7, i64 %idxprom.i.i10
  %8 = load ptr, ptr %arrayidx.i.i.i14, align 8
  %9 = load ptr, ptr %8, align 8
  %call15 = tail call noundef ptr @_ZNK4expr8get_sortEv(ptr noundef nonnull align 4 dereferenceable(16) %9)
  %cmp16.not = icmp eq ptr %call11, %call15
  br i1 %cmp16.not, label %lor.lhs.false17, label %return

lor.lhs.false17:                                  ; preds = %if.end8
  %10 = load ptr, ptr %this, align 8
  %bv = getelementptr inbounds i8, ptr %10, i64 128
  %call19 = tail call noundef zeroext i1 @_ZNK14bv_recognizers10is_bv_sortEPK4sort(ptr noundef nonnull align 4 dereferenceable(4) %bv, ptr noundef %call11)
  br i1 %call19, label %if.end21, label %return

if.end21:                                         ; preds = %lor.lhs.false17
  %11 = load ptr, ptr %this, align 8
  tail call void @_ZN2bv6solver15assert_ackermanEii(ptr noundef nonnull align 8 dereferenceable(640) %11, i32 noundef %v1, i32 noundef %v2)
  br label %return

return:                                           ; preds = %entry, %if.end8, %lor.lhs.false17, %if.end, %lor.lhs.false, %_ZNK3euf13th_euf_solver12get_num_varsEv.exit, %if.end21
  ret void
}